target datalayout = "e-m:e-p270:32:32-p271:32:32-p272:64:64-i64:64-i128:128-f80:128-n8:16:32:64-S128"
target triple = "x86_64-pc-linux-gnu"

%struct.dbcs_index = type { ptr, i8, i8 }

@cgk2u_choseong = internal constant [30 x i8] c"\00\01\7F\02\7F\7F\03\04\05\7F\7F\7F\7F\7F\7F\7F\06\07\08\7F\09\0A\0B\0C\0D\0E\0F\10\11\12", align 16
@cgk2u_jongseong = internal constant [30 x i8] c"\01\02\03\04\05\06\07\7F\08\09\0A\0B\0C\0D\0E\0F\10\11\7F\12\13\14\15\16\7F\17\18\19\1A\1B", align 16

; Function Attrs: nounwind uwtable
define internal i64 @euc_kr_decode(ptr noundef %0, ptr noundef %1, ptr noundef %2, i64 noundef %3, ptr noundef %4) #0 {
  %6 = alloca i64, align 8
  %7 = alloca ptr, align 8
  %8 = alloca ptr, align 8
  %9 = alloca ptr, align 8
  %10 = alloca i64, align 8
  %11 = alloca ptr, align 8
  %12 = alloca i8, align 1
  %13 = alloca i32, align 4
  %14 = alloca i32, align 4
  %15 = alloca i16, align 2
  %16 = alloca i16, align 2
  %17 = alloca i16, align 2
  store ptr %0, ptr %7, align 8, !tbaa !3
  store ptr %1, ptr %8, align 8, !tbaa !21
  store ptr %2, ptr %9, align 8, !tbaa !68
  store i64 %3, ptr %10, align 8, !tbaa !28
  store ptr %4, ptr %11, align 8, !tbaa !3
  br label %18

18:                                               ; preds = %298, %296, %5
  %19 = load i64, ptr %10, align 8, !tbaa !28
  %20 = icmp sgt i64 %19, 0
  br i1 %20, label %21, label %299

21:                                               ; preds = %18
  call void @llvm.lifetime.start.p0(i64 1, ptr %12) #9
  %22 = load ptr, ptr %9, align 8, !tbaa !68
  %23 = load ptr, ptr %22, align 8, !tbaa !17
  %24 = getelementptr i8, ptr %23, i64 0
  %25 = load i8, ptr %24, align 1, !tbaa !42
  store i8 %25, ptr %12, align 1, !tbaa !42
  call void @llvm.lifetime.start.p0(i64 4, ptr %13) #9
  %26 = load i8, ptr %12, align 1, !tbaa !42
  %27 = zext i8 %26 to i32
  %28 = icmp slt i32 %27, 128
  br i1 %28, label %29, label %48

29:                                               ; preds = %21
  br label %30

30:                                               ; preds = %29
  %31 = load ptr, ptr %11, align 8, !tbaa !3
  %32 = load i8, ptr %12, align 1, !tbaa !42
  %33 = zext i8 %32 to i32
  %34 = call i32 @_PyUnicodeWriter_WriteChar(ptr noundef %31, i32 noundef %33)
  %35 = icmp slt i32 %34, 0
  br i1 %35, label %36, label %37

36:                                               ; preds = %30
  store i64 -4, ptr %6, align 8
  store i32 1, ptr %14, align 4
  br label %296

37:                                               ; preds = %30
  br label %38

38:                                               ; preds = %37
  br label %39

39:                                               ; preds = %38
  br label %40

40:                                               ; preds = %39
  %41 = load ptr, ptr %9, align 8, !tbaa !68
  %42 = load ptr, ptr %41, align 8, !tbaa !17
  %43 = getelementptr i8, ptr %42, i64 1
  store ptr %43, ptr %41, align 8, !tbaa !17
  %44 = load i64, ptr %10, align 8, !tbaa !28
  %45 = sub i64 %44, 1
  store i64 %45, ptr %10, align 8, !tbaa !28
  br label %46

46:                                               ; preds = %40
  br label %47

47:                                               ; preds = %46
  store i32 2, ptr %14, align 4
  br label %296, !llvm.loop !77

48:                                               ; preds = %21
  br label %49

49:                                               ; preds = %48
  %50 = load i64, ptr %10, align 8, !tbaa !28
  %51 = icmp slt i64 %50, 2
  br i1 %51, label %52, label %53

52:                                               ; preds = %49
  store i64 -2, ptr %6, align 8
  store i32 1, ptr %14, align 4
  br label %296

53:                                               ; preds = %49
  br label %54

54:                                               ; preds = %53
  br label %55

55:                                               ; preds = %54
  %56 = load i8, ptr %12, align 1, !tbaa !42
  %57 = zext i8 %56 to i32
  %58 = icmp eq i32 %57, 164
  br i1 %58, label %59, label %206

59:                                               ; preds = %55
  %60 = load ptr, ptr %9, align 8, !tbaa !68
  %61 = load ptr, ptr %60, align 8, !tbaa !17
  %62 = getelementptr i8, ptr %61, i64 1
  %63 = load i8, ptr %62, align 1, !tbaa !42
  %64 = zext i8 %63 to i32
  %65 = icmp eq i32 %64, 212
  br i1 %65, label %66, label %206

66:                                               ; preds = %59
  call void @llvm.lifetime.start.p0(i64 2, ptr %15) #9
  call void @llvm.lifetime.start.p0(i64 2, ptr %16) #9
  call void @llvm.lifetime.start.p0(i64 2, ptr %17) #9
  br label %67

67:                                               ; preds = %66
  %68 = load i64, ptr %10, align 8, !tbaa !28
  %69 = icmp slt i64 %68, 8
  br i1 %69, label %70, label %71

70:                                               ; preds = %67
  store i64 -2, ptr %6, align 8
  store i32 1, ptr %14, align 4
  br label %203

71:                                               ; preds = %67
  br label %72

72:                                               ; preds = %71
  br label %73

73:                                               ; preds = %72
  %74 = load ptr, ptr %9, align 8, !tbaa !68
  %75 = load ptr, ptr %74, align 8, !tbaa !17
  %76 = getelementptr i8, ptr %75, i64 2
  %77 = load i8, ptr %76, align 1, !tbaa !42
  %78 = zext i8 %77 to i32
  %79 = icmp ne i32 %78, 164
  br i1 %79, label %94, label %80

80:                                               ; preds = %73
  %81 = load ptr, ptr %9, align 8, !tbaa !68
  %82 = load ptr, ptr %81, align 8, !tbaa !17
  %83 = getelementptr i8, ptr %82, i64 4
  %84 = load i8, ptr %83, align 1, !tbaa !42
  %85 = zext i8 %84 to i32
  %86 = icmp ne i32 %85, 164
  br i1 %86, label %94, label %87

87:                                               ; preds = %80
  %88 = load ptr, ptr %9, align 8, !tbaa !68
  %89 = load ptr, ptr %88, align 8, !tbaa !17
  %90 = getelementptr i8, ptr %89, i64 6
  %91 = load i8, ptr %90, align 1, !tbaa !42
  %92 = zext i8 %91 to i32
  %93 = icmp ne i32 %92, 164
  br i1 %93, label %94, label %95

94:                                               ; preds = %87, %80, %73
  store i64 1, ptr %6, align 8
  store i32 1, ptr %14, align 4
  br label %203

95:                                               ; preds = %87
  %96 = load ptr, ptr %9, align 8, !tbaa !68
  %97 = load ptr, ptr %96, align 8, !tbaa !17
  %98 = getelementptr i8, ptr %97, i64 3
  %99 = load i8, ptr %98, align 1, !tbaa !42
  store i8 %99, ptr %12, align 1, !tbaa !42
  %100 = load i8, ptr %12, align 1, !tbaa !42
  %101 = zext i8 %100 to i32
  %102 = icmp sle i32 161, %101
  br i1 %102, label %103, label %115

103:                                              ; preds = %95
  %104 = load i8, ptr %12, align 1, !tbaa !42
  %105 = zext i8 %104 to i32
  %106 = icmp sle i32 %105, 190
  br i1 %106, label %107, label %115

107:                                              ; preds = %103
  %108 = load i8, ptr %12, align 1, !tbaa !42
  %109 = zext i8 %108 to i32
  %110 = sub i32 %109, 161
  %111 = sext i32 %110 to i64
  %112 = getelementptr [30 x i8], ptr @cgk2u_choseong, i64 0, i64 %111
  %113 = load i8, ptr %112, align 1, !tbaa !42
  %114 = zext i8 %113 to i16
  store i16 %114, ptr %15, align 2, !tbaa !76
  br label %116

115:                                              ; preds = %103, %95
  store i16 127, ptr %15, align 2, !tbaa !76
  br label %116

116:                                              ; preds = %115, %107
  %117 = load ptr, ptr %9, align 8, !tbaa !68
  %118 = load ptr, ptr %117, align 8, !tbaa !17
  %119 = getelementptr i8, ptr %118, i64 5
  %120 = load i8, ptr %119, align 1, !tbaa !42
  store i8 %120, ptr %12, align 1, !tbaa !42
  %121 = load i8, ptr %12, align 1, !tbaa !42
  %122 = zext i8 %121 to i32
  %123 = icmp sle i32 191, %122
  br i1 %123, label %124, label %132

124:                                              ; preds = %116
  %125 = load i8, ptr %12, align 1, !tbaa !42
  %126 = zext i8 %125 to i32
  %127 = icmp sle i32 %126, 211
  br i1 %127, label %128, label %132

128:                                              ; preds = %124
  %129 = load i8, ptr %12, align 1, !tbaa !42
  %130 = zext i8 %129 to i32
  %131 = sub i32 %130, 191
  br label %133

132:                                              ; preds = %124, %116
  br label %133

133:                                              ; preds = %132, %128
  %134 = phi i32 [ %131, %128 ], [ 127, %132 ]
  %135 = trunc i32 %134 to i16
  store i16 %135, ptr %16, align 2, !tbaa !76
  %136 = load ptr, ptr %9, align 8, !tbaa !68
  %137 = load ptr, ptr %136, align 8, !tbaa !17
  %138 = getelementptr i8, ptr %137, i64 7
  %139 = load i8, ptr %138, align 1, !tbaa !42
  store i8 %139, ptr %12, align 1, !tbaa !42
  %140 = load i8, ptr %12, align 1, !tbaa !42
  %141 = zext i8 %140 to i32
  %142 = icmp eq i32 %141, 212
  br i1 %142, label %143, label %144

143:                                              ; preds = %133
  store i16 0, ptr %17, align 2, !tbaa !76
  br label %162

144:                                              ; preds = %133
  %145 = load i8, ptr %12, align 1, !tbaa !42
  %146 = zext i8 %145 to i32
  %147 = icmp sle i32 161, %146
  br i1 %147, label %148, label %160

148:                                              ; preds = %144
  %149 = load i8, ptr %12, align 1, !tbaa !42
  %150 = zext i8 %149 to i32
  %151 = icmp sle i32 %150, 190
  br i1 %151, label %152, label %160

152:                                              ; preds = %148
  %153 = load i8, ptr %12, align 1, !tbaa !42
  %154 = zext i8 %153 to i32
  %155 = sub i32 %154, 161
  %156 = sext i32 %155 to i64
  %157 = getelementptr [30 x i8], ptr @cgk2u_jongseong, i64 0, i64 %156
  %158 = load i8, ptr %157, align 1, !tbaa !42
  %159 = zext i8 %158 to i16
  store i16 %159, ptr %17, align 2, !tbaa !76
  br label %161

160:                                              ; preds = %148, %144
  store i16 127, ptr %17, align 2, !tbaa !76
  br label %161

161:                                              ; preds = %160, %152
  br label %162

162:                                              ; preds = %161, %143
  %163 = load i16, ptr %15, align 2, !tbaa !76
  %164 = zext i16 %163 to i32
  %165 = icmp eq i32 %164, 127
  br i1 %165, label %174, label %166

166:                                              ; preds = %162
  %167 = load i16, ptr %16, align 2, !tbaa !76
  %168 = zext i16 %167 to i32
  %169 = icmp eq i32 %168, 127
  br i1 %169, label %174, label %170

170:                                              ; preds = %166
  %171 = load i16, ptr %17, align 2, !tbaa !76
  %172 = zext i16 %171 to i32
  %173 = icmp eq i32 %172, 127
  br i1 %173, label %174, label %175

174:                                              ; preds = %170, %166, %162
  store i64 1, ptr %6, align 8
  store i32 1, ptr %14, align 4
  br label %203

175:                                              ; preds = %170
  br label %176

176:                                              ; preds = %175
  %177 = load ptr, ptr %11, align 8, !tbaa !3
  %178 = load i16, ptr %15, align 2, !tbaa !76
  %179 = zext i16 %178 to i32
  %180 = mul i32 %179, 588
  %181 = add i32 44032, %180
  %182 = load i16, ptr %16, align 2, !tbaa !76
  %183 = zext i16 %182 to i32
  %184 = mul i32 %183, 28
  %185 = add i32 %181, %184
  %186 = load i16, ptr %17, align 2, !tbaa !76
  %187 = zext i16 %186 to i32
  %188 = add i32 %185, %187
  %189 = call i32 @_PyUnicodeWriter_WriteChar(ptr noundef %177, i32 noundef %188)
  %190 = icmp slt i32 %189, 0
  br i1 %190, label %191, label %192

191:                                              ; preds = %176
  store i64 -4, ptr %6, align 8
  store i32 1, ptr %14, align 4
  br label %203

192:                                              ; preds = %176
  br label %193

193:                                              ; preds = %192
  br label %194

194:                                              ; preds = %193
  br label %195

195:                                              ; preds = %194
  %196 = load ptr, ptr %9, align 8, !tbaa !68
  %197 = load ptr, ptr %196, align 8, !tbaa !17
  %198 = getelementptr i8, ptr %197, i64 8
  store ptr %198, ptr %196, align 8, !tbaa !17
  %199 = load i64, ptr %10, align 8, !tbaa !28
  %200 = sub i64 %199, 8
  store i64 %200, ptr %10, align 8, !tbaa !28
  br label %201

201:                                              ; preds = %195
  br label %202

202:                                              ; preds = %201
  store i32 0, ptr %14, align 4
  br label %203

203:                                              ; preds = %202, %191, %174, %94, %70
  call void @llvm.lifetime.end.p0(i64 2, ptr %17) #9
  call void @llvm.lifetime.end.p0(i64 2, ptr %16) #9
  call void @llvm.lifetime.end.p0(i64 2, ptr %15) #9
  %204 = load i32, ptr %14, align 4
  switch i32 %204, label %296 [
    i32 0, label %205
  ]

205:                                              ; preds = %203
  br label %295

206:                                              ; preds = %59, %55
  %207 = load i8, ptr %12, align 1, !tbaa !42
  %208 = zext i8 %207 to i32
  %209 = xor i32 %208, 128
  %210 = sext i32 %209 to i64
  %211 = getelementptr [256 x %struct.dbcs_index], ptr @ksx1001_decmap, i64 0, i64 %210
  %212 = getelementptr inbounds nuw %struct.dbcs_index, ptr %211, i32 0, i32 0
  %213 = load ptr, ptr %212, align 16, !tbaa !78
  %214 = icmp ne ptr %213, null
  br i1 %214, label %215, label %293

215:                                              ; preds = %206
  %216 = load ptr, ptr %9, align 8, !tbaa !68
  %217 = load ptr, ptr %216, align 8, !tbaa !17
  %218 = getelementptr i8, ptr %217, i64 1
  %219 = load i8, ptr %218, align 1, !tbaa !42
  %220 = zext i8 %219 to i32
  %221 = xor i32 %220, 128
  %222 = load i8, ptr %12, align 1, !tbaa !42
  %223 = zext i8 %222 to i32
  %224 = xor i32 %223, 128
  %225 = sext i32 %224 to i64
  %226 = getelementptr [256 x %struct.dbcs_index], ptr @ksx1001_decmap, i64 0, i64 %225
  %227 = getelementptr inbounds nuw %struct.dbcs_index, ptr %226, i32 0, i32 1
  %228 = load i8, ptr %227, align 8, !tbaa !80
  %229 = zext i8 %228 to i32
  %230 = icmp sge i32 %221, %229
  br i1 %230, label %231, label %293

231:                                              ; preds = %215
  %232 = load ptr, ptr %9, align 8, !tbaa !68
  %233 = load ptr, ptr %232, align 8, !tbaa !17
  %234 = getelementptr i8, ptr %233, i64 1
  %235 = load i8, ptr %234, align 1, !tbaa !42
  %236 = zext i8 %235 to i32
  %237 = xor i32 %236, 128
  %238 = load i8, ptr %12, align 1, !tbaa !42
  %239 = zext i8 %238 to i32
  %240 = xor i32 %239, 128
  %241 = sext i32 %240 to i64
  %242 = getelementptr [256 x %struct.dbcs_index], ptr @ksx1001_decmap, i64 0, i64 %241
  %243 = getelementptr inbounds nuw %struct.dbcs_index, ptr %242, i32 0, i32 2
  %244 = load i8, ptr %243, align 1, !tbaa !81
  %245 = zext i8 %244 to i32
  %246 = icmp sle i32 %237, %245
  br i1 %246, label %247, label %293

247:                                              ; preds = %231
  %248 = load i8, ptr %12, align 1, !tbaa !42
  %249 = zext i8 %248 to i32
  %250 = xor i32 %249, 128
  %251 = sext i32 %250 to i64
  %252 = getelementptr [256 x %struct.dbcs_index], ptr @ksx1001_decmap, i64 0, i64 %251
  %253 = getelementptr inbounds nuw %struct.dbcs_index, ptr %252, i32 0, i32 0
  %254 = load ptr, ptr %253, align 16, !tbaa !78
  %255 = load ptr, ptr %9, align 8, !tbaa !68
  %256 = load ptr, ptr %255, align 8, !tbaa !17
  %257 = getelementptr i8, ptr %256, i64 1
  %258 = load i8, ptr %257, align 1, !tbaa !42
  %259 = zext i8 %258 to i32
  %260 = xor i32 %259, 128
  %261 = load i8, ptr %12, align 1, !tbaa !42
  %262 = zext i8 %261 to i32
  %263 = xor i32 %262, 128
  %264 = sext i32 %263 to i64
  %265 = getelementptr [256 x %struct.dbcs_index], ptr @ksx1001_decmap, i64 0, i64 %264
  %266 = getelementptr inbounds nuw %struct.dbcs_index, ptr %265, i32 0, i32 1
  %267 = load i8, ptr %266, align 8, !tbaa !80
  %268 = zext i8 %267 to i32
  %269 = sub i32 %260, %268
  %270 = sext i32 %269 to i64
  %271 = getelementptr i16, ptr %254, i64 %270
  %272 = load i16, ptr %271, align 2, !tbaa !76
  %273 = zext i16 %272 to i32
  store i32 %273, ptr %13, align 4, !tbaa !19
  %274 = icmp ne i32 %273, 65534
  br i1 %274, label %275, label %293

275:                                              ; preds = %247
  br label %276

276:                                              ; preds = %275
  %277 = load ptr, ptr %11, align 8, !tbaa !3
  %278 = load i32, ptr %13, align 4, !tbaa !19
  %279 = call i32 @_PyUnicodeWriter_WriteChar(ptr noundef %277, i32 noundef %278)
  %280 = icmp slt i32 %279, 0
  br i1 %280, label %281, label %282

281:                                              ; preds = %276
  store i64 -4, ptr %6, align 8
  store i32 1, ptr %14, align 4
  br label %296

282:                                              ; preds = %276
  br label %283

283:                                              ; preds = %282
  br label %284

284:                                              ; preds = %283
  br label %285

285:                                              ; preds = %284
  %286 = load ptr, ptr %9, align 8, !tbaa !68
  %287 = load ptr, ptr %286, align 8, !tbaa !17
  %288 = getelementptr i8, ptr %287, i64 2
  store ptr %288, ptr %286, align 8, !tbaa !17
  %289 = load i64, ptr %10, align 8, !tbaa !28
  %290 = sub i64 %289, 2
  store i64 %290, ptr %10, align 8, !tbaa !28
  br label %291

291:                                              ; preds = %285
  br label %292

292:                                              ; preds = %291
  br label %294

293:                                              ; preds = %247, %231, %215, %206
  store i64 1, ptr %6, align 8
  store i32 1, ptr %14, align 4
  br label %296

294:                                              ; preds = %292
  br label %295

295:                                              ; preds = %294, %205
  store i32 0, ptr %14, align 4
  br label %296

296:                                              ; preds = %295, %293, %281, %203, %52, %47, %36
  call void @llvm.lifetime.end.p0(i64 4, ptr %13) #9
  call void @llvm.lifetime.end.p0(i64 1, ptr %12) #9
  %297 = load i32, ptr %14, align 4
  switch i32 %297, label %302 [
    i32 0, label %298
    i32 1, label %300
    i32 2, label %18
  ]

298:                                              ; preds = %296
  br label %18, !llvm.loop !77

299:                                              ; preds = %18
  store i64 0, ptr %6, align 8
  br label %300

300:                                              ; preds = %299, %296
  %301 = load i64, ptr %6, align 8
  ret i64 %301

302:                                              ; preds = %296
  unreachable
}