; Function Attrs: nounwind uwtable
define internal range(i64 -4, 2) i64 @euc_kr_decode(ptr readnone captures(none) %0, ptr readnone captures(none) %1, ptr noundef captures(none) %2, i64 noundef %3, ptr noundef %4) #0 {
  %6 = icmp sgt i64 %3, 0
  br i1 %6, label %.lr.ph.preheader, label %.thread95

.lr.ph.preheader:                                 ; preds = %5
  %.pre = load ptr, ptr %2, align 8, !tbaa !37
  br label %.lr.ph

.lr.ph:                                           ; preds = %.lr.ph.preheader, %100
  %7 = phi ptr [ %102, %100 ], [ %.pre, %.lr.ph.preheader ]
  %.068101 = phi i64 [ %103, %100 ], [ %3, %.lr.ph.preheader ]
  %8 = load i8, ptr %7, align 1, !tbaa !34
  %9 = zext i8 %8 to i32
  %10 = icmp sgt i8 %8, -1
  br i1 %10, label %11, label %14

11:                                               ; preds = %.lr.ph
  %12 = tail call i32 @_PyUnicodeWriter_WriteChar(ptr noundef %4, i32 noundef %9) #7
  %13 = icmp slt i32 %12, 0
  br i1 %13, label %.thread95, label %100, !llvm.loop !57

14:                                               ; preds = %.lr.ph
  %15 = icmp eq i64 %.068101, 1
  br i1 %15, label %.thread95, label %16

16:                                               ; preds = %14
  %17 = icmp eq i8 %8, -92
  br i1 %17, label %18, label %76

18:                                               ; preds = %16
  %19 = getelementptr i8, ptr %7, i64 1
  %20 = load i8, ptr %19, align 1, !tbaa !34
  %21 = icmp eq i8 %20, -44
  br i1 %21, label %22, label %76

22:                                               ; preds = %18
  %23 = icmp samesign ult i64 %.068101, 8
  br i1 %23, label %.thread95, label %24

24:                                               ; preds = %22
  %25 = getelementptr i8, ptr %7, i64 2
  %26 = load i8, ptr %25, align 1, !tbaa !34
  %.not86 = icmp eq i8 %26, -92
  br i1 %.not86, label %27, label %.thread95

27:                                               ; preds = %24
  %28 = getelementptr i8, ptr %7, i64 4
  %29 = load i8, ptr %28, align 1, !tbaa !34
  %.not87 = icmp eq i8 %29, -92
  br i1 %.not87, label %30, label %.thread95

30:                                               ; preds = %27
  %31 = getelementptr i8, ptr %7, i64 6
  %32 = load i8, ptr %31, align 1, !tbaa !34
  %.not88 = icmp eq i8 %32, -92
  br i1 %.not88, label %33, label %.thread95

33:                                               ; preds = %30
  %34 = getelementptr i8, ptr %7, i64 3
  %35 = load i8, ptr %34, align 1, !tbaa !34
  %36 = add i8 %35, 95
  %or.cond = icmp ult i8 %36, 30
  br i1 %or.cond, label %37, label %44

37:                                               ; preds = %33
  %38 = zext i8 %35 to i64
  %39 = add nuw nsw i64 %38, 4294967135
  %40 = and i64 %39, 4294967295
  %41 = getelementptr [30 x i8], ptr @cgk2u_choseong, i64 0, i64 %40
  %42 = load i8, ptr %41, align 1, !tbaa !34
  %43 = zext i8 %42 to i32
  br label %44

44:                                               ; preds = %33, %37
  %.065 = phi i32 [ %43, %37 ], [ 127, %33 ]
  %45 = getelementptr i8, ptr %7, i64 5
  %46 = load i8, ptr %45, align 1, !tbaa !34
  %47 = zext i8 %46 to i32
  %48 = add i8 %46, 65
  %or.cond5 = icmp ult i8 %48, 21
  %49 = add nuw nsw i32 %47, 65345
  %50 = getelementptr i8, ptr %7, i64 7
  %51 = load i8, ptr %50, align 1, !tbaa !34
  %52 = zext i8 %51 to i64
  %53 = icmp eq i8 %51, -44
  br i1 %53, label %62, label %54

54:                                               ; preds = %44
  %55 = add i8 %51, 95
  %or.cond8 = icmp ult i8 %55, 30
  br i1 %or.cond8, label %56, label %62

56:                                               ; preds = %54
  %57 = add nuw nsw i64 %52, 4294967135
  %58 = and i64 %57, 4294967295
  %59 = getelementptr [30 x i8], ptr @cgk2u_jongseong, i64 0, i64 %58
  %60 = load i8, ptr %59, align 1, !tbaa !34
  %61 = zext i8 %60 to i32
  br label %62

62:                                               ; preds = %54, %44, %56
  %.0 = phi i32 [ %61, %56 ], [ 0, %44 ], [ 127, %54 ]
  %63 = icmp eq i32 %.065, 127
  %64 = and i32 %49, 65535
  %65 = select i1 %or.cond5, i32 %64, i32 127
  %66 = icmp eq i32 %65, 127
  %or.cond11 = select i1 %63, i1 true, i1 %66
  %67 = icmp eq i32 %.0, 127
  %or.cond14 = select i1 %or.cond11, i1 true, i1 %67
  br i1 %or.cond14, label %.thread95, label %68

68:                                               ; preds = %62
  %69 = mul nuw nsw i32 %.065, 588
  %70 = add nuw nsw i32 %69, 44032
  %71 = mul nuw nsw i32 %65, 28
  %72 = add nuw nsw i32 %70, %71
  %73 = add nuw nsw i32 %72, %.0
  %74 = tail call i32 @_PyUnicodeWriter_WriteChar(ptr noundef %4, i32 noundef %73) #7
  %75 = icmp slt i32 %74, 0
  br i1 %75, label %.thread95, label %100

76:                                               ; preds = %18, %16
  %77 = and i32 %9, 127
  %78 = zext nneg i32 %77 to i64
  %79 = getelementptr [256 x %struct.dbcs_index], ptr @ksx1001_decmap, i64 0, i64 %78
  %80 = load ptr, ptr %79, align 16, !tbaa !58
  %.not = icmp eq ptr %80, null
  br i1 %.not, label %.thread95, label %81

81:                                               ; preds = %76
  %82 = getelementptr i8, ptr %7, i64 1
  %83 = load i8, ptr %82, align 1, !tbaa !34
  %84 = xor i8 %83, -128
  %85 = zext i8 %84 to i64
  %86 = getelementptr inbounds nuw i8, ptr %79, i64 8
  %87 = load i8, ptr %86, align 8, !tbaa !60
  %88 = zext i8 %87 to i64
  %.not83 = icmp ult i8 %84, %87
  br i1 %.not83, label %.thread95, label %89

89:                                               ; preds = %81
  %90 = getelementptr inbounds nuw i8, ptr %79, i64 9
  %91 = load i8, ptr %90, align 1, !tbaa !61
  %.not84 = icmp ugt i8 %84, %91
  br i1 %.not84, label %.thread95, label %92

92:                                               ; preds = %89
  %93 = sub nsw i64 %85, %88
  %94 = getelementptr i16, ptr %80, i64 %93
  %95 = load i16, ptr %94, align 2, !tbaa !49
  %.not85 = icmp eq i16 %95, -2
  br i1 %.not85, label %.thread95, label %96

96:                                               ; preds = %92
  %97 = zext i16 %95 to i32
  %98 = tail call i32 @_PyUnicodeWriter_WriteChar(ptr noundef %4, i32 noundef %97) #7
  %99 = icmp slt i32 %98, 0
  br i1 %99, label %.thread95, label %100

100:                                              ; preds = %96, %68, %11
  %.sink130 = phi i64 [ 1, %11 ], [ 8, %68 ], [ 2, %96 ]
  %.sink = phi i64 [ -1, %11 ], [ -8, %68 ], [ -2, %96 ]
  %101 = load ptr, ptr %2, align 8, !tbaa !37
  %102 = getelementptr i8, ptr %101, i64 %.sink130
  store ptr %102, ptr %2, align 8, !tbaa !37
  %103 = add nsw i64 %.068101, %.sink
  %104 = icmp sgt i64 %103, 0
  br i1 %104, label %.lr.ph, label %.thread95

.thread95:                                        ; preds = %100, %11, %14, %96, %92, %89, %81, %76, %22, %30, %27, %24, %62, %68, %5
  %.4 = phi i64 [ 0, %5 ], [ -4, %68 ], [ 1, %62 ], [ 1, %24 ], [ 1, %27 ], [ 1, %30 ], [ -2, %22 ], [ 1, %76 ], [ 1, %81 ], [ 1, %89 ], [ 1, %92 ], [ -4, %96 ], [ -2, %14 ], [ -4, %11 ], [ 0, %100 ]
  ret i64 %.4
}